target datalayout = "e-m:e-p270:32:32-p271:32:32-p272:64:64-i64:64-i128:128-f80:128-n8:16:32:64-S128"
target triple = "x86_64-pc-linux-gnu"

%"class.logos::PointPair" = type <{ ptr, ptr, i32, float, float, i32, i32, [4 x i8] }>
%"class.std::vector" = type { %"struct.std::_Vector_base" }
%"struct.std::_Vector_base" = type { %"struct.std::_Vector_base<logos::Point *, std::allocator<logos::Point *>>::_Vector_impl" }
%"struct.std::_Vector_base<logos::Point *, std::allocator<logos::Point *>>::_Vector_impl" = type { %"struct.std::_Vector_base<logos::Point *, std::allocator<logos::Point *>>::_Vector_impl_data" }
%"struct.std::_Vector_base<logos::Point *, std::allocator<logos::Point *>>::_Vector_impl_data" = type { ptr, ptr, ptr }
%"class.logos::Point" = type { float, float, float, float, %"class.std::vector", i8, i32 }

; Function Attrs: inlinehint mustprogress nounwind uwtable
define linkonce_odr noundef float @_ZSt3logf(float noundef %0) #4 comdat {
  %2 = alloca float, align 4
  store float %0, ptr %2, align 4, !tbaa !56
  %3 = load float, ptr %2, align 4, !tbaa !56
  %4 = call float @logf(float noundef %3) #13, !tbaa !22
  ret float %4
}

; Function Attrs: inlinehint mustprogress nounwind uwtable
define linkonce_odr hidden noundef float @_ZNK5logos5Point8getScaleEv(ptr noundef nonnull align 8 dereferenceable(48) %0) #4 comdat align 2 {
  %2 = alloca ptr, align 8
  store ptr %0, ptr %2, align 8, !tbaa !8
  %3 = load ptr, ptr %2, align 8
  %4 = getelementptr inbounds nuw %"class.logos::Point", ptr %3, i32 0, i32 3
  %5 = load float, ptr %4, align 4, !tbaa !60
  ret float %5
}

; Function Attrs: mustprogress nounwind uwtable
define hidden noundef float @_ZN5logos9PointPair9angleDiffEff(ptr noundef nonnull align 8 dereferenceable(36) %0, float noundef %1, float noundef %2) #2 align 2 {
  %4 = alloca ptr, align 8
  %5 = alloca float, align 4
  %6 = alloca float, align 4
  %7 = alloca float, align 4
  store ptr %0, ptr %4, align 8, !tbaa !3
  store float %1, ptr %5, align 4, !tbaa !56
  store float %2, ptr %6, align 4, !tbaa !56
  call void @llvm.lifetime.start.p0(i64 4, ptr %7) #13
  %8 = load float, ptr %5, align 4, !tbaa !56
  %9 = load float, ptr %6, align 4, !tbaa !56
  %10 = fsub float %8, %9
  store float %10, ptr %7, align 4, !tbaa !56
  br label %11

11:                                               ; preds = %15, %3
  %12 = load float, ptr %7, align 4, !tbaa !56
  %13 = fpext float %12 to double
  %14 = fcmp ogt double %13, 0x400921FB54442D18
  br i1 %14, label %15, label %20

15:                                               ; preds = %11
  %16 = load float, ptr %7, align 4, !tbaa !56
  %17 = fpext float %16 to double
  %18 = fsub double %17, 0x401921FB54442D18
  %19 = fptrunc double %18 to float
  store float %19, ptr %7, align 4, !tbaa !56
  br label %11, !llvm.loop !57

20:                                               ; preds = %11
  br label %21

21:                                               ; preds = %25, %20
  %22 = load float, ptr %7, align 4, !tbaa !56
  %23 = fpext float %22 to double
  %24 = fcmp olt double %23, 0xC00921FB54442D18
  br i1 %24, label %25, label %30

25:                                               ; preds = %21
  %26 = load float, ptr %7, align 4, !tbaa !56
  %27 = fpext float %26 to double
  %28 = fadd double %27, 0x401921FB54442D18
  %29 = fptrunc double %28 to float
  store float %29, ptr %7, align 4, !tbaa !56
  br label %21, !llvm.loop !58

30:                                               ; preds = %21
  %31 = load float, ptr %7, align 4, !tbaa !56
  call void @llvm.lifetime.end.p0(i64 4, ptr %7) #13
  ret float %31
}

; Function Attrs: inlinehint mustprogress nounwind uwtable
define linkonce_odr hidden noundef float @_ZNK5logos5Point14getOrientationEv(ptr noundef nonnull align 8 dereferenceable(48) %0) #4 comdat align 2 {
  %2 = alloca ptr, align 8
  store ptr %0, ptr %2, align 8, !tbaa !8
  %3 = load ptr, ptr %2, align 8
  %4 = getelementptr inbounds nuw %"class.logos::Point", ptr %3, i32 0, i32 2
  %5 = load float, ptr %4, align 8, !tbaa !59
  ret float %5
}

; Function Attrs: mustprogress uwtable
define hidden void @_ZN5logos9PointPair26calculateInternalVariablesEv(ptr noundef nonnull align 8 dereferenceable(36) %0) #0 align 2 {
  %2 = alloca ptr, align 8
  store ptr %0, ptr %2, align 8, !tbaa !3
  %3 = load ptr, ptr %2, align 8
  %4 = getelementptr inbounds nuw %"class.logos::PointPair", ptr %3, i32 0, i32 0
  %5 = load ptr, ptr %4, align 8, !tbaa !10
  %6 = call noundef float @_ZNK5logos5Point14getOrientationEv(ptr noundef nonnull align 8 dereferenceable(48) %5)
  %7 = getelementptr inbounds nuw %"class.logos::PointPair", ptr %3, i32 0, i32 1
  %8 = load ptr, ptr %7, align 8, !tbaa !14
  %9 = call noundef float @_ZNK5logos5Point14getOrientationEv(ptr noundef nonnull align 8 dereferenceable(48) %8)
  %10 = call noundef float @_ZN5logos9PointPair9angleDiffEff(ptr noundef nonnull align 8 dereferenceable(36) %3, float noundef %6, float noundef %9)
  %11 = getelementptr inbounds nuw %"class.logos::PointPair", ptr %3, i32 0, i32 3
  store float %10, ptr %11, align 4, !tbaa !18
  %12 = getelementptr inbounds nuw %"class.logos::PointPair", ptr %3, i32 0, i32 0
  %13 = load ptr, ptr %12, align 8, !tbaa !10
  %14 = call noundef float @_ZNK5logos5Point8getScaleEv(ptr noundef nonnull align 8 dereferenceable(48) %13)
  %15 = call noundef float @_ZSt3logf(float noundef %14)
  %16 = getelementptr inbounds nuw %"class.logos::PointPair", ptr %3, i32 0, i32 1
  %17 = load ptr, ptr %16, align 8, !tbaa !14
  %18 = call noundef float @_ZNK5logos5Point8getScaleEv(ptr noundef nonnull align 8 dereferenceable(48) %17)
  %19 = call noundef float @_ZSt3logf(float noundef %18)
  %20 = fsub float %15, %19
  %21 = getelementptr inbounds nuw %"class.logos::PointPair", ptr %3, i32 0, i32 4
  store float %20, ptr %21, align 8, !tbaa !19
  ret void
}

; Function Attrs: mustprogress uwtable
define hidden void @_ZN5logos9PointPairC2EPNS_5PointES2_(ptr noundef nonnull align 8 dereferenceable(36) %0, ptr noundef %1, ptr noundef %2) unnamed_addr #0 align 2 {
  %4 = alloca ptr, align 8
  %5 = alloca ptr, align 8
  %6 = alloca ptr, align 8
  store ptr %0, ptr %4, align 8, !tbaa !3
  store ptr %1, ptr %5, align 8, !tbaa !8
  store ptr %2, ptr %6, align 8, !tbaa !8
  %7 = load ptr, ptr %4, align 8
  %8 = getelementptr inbounds nuw %"class.logos::PointPair", ptr %7, i32 0, i32 0
  %9 = load ptr, ptr %5, align 8, !tbaa !8
  store ptr %9, ptr %8, align 8, !tbaa !10
  %10 = getelementptr inbounds nuw %"class.logos::PointPair", ptr %7, i32 0, i32 1
  %11 = load ptr, ptr %6, align 8, !tbaa !8
  store ptr %11, ptr %10, align 8, !tbaa !14
  %12 = getelementptr inbounds nuw %"class.logos::PointPair", ptr %7, i32 0, i32 2
  store i32 0, ptr %12, align 8, !tbaa !15
  %13 = getelementptr inbounds nuw %"class.logos::PointPair", ptr %7, i32 0, i32 5
  store i32 0, ptr %13, align 4, !tbaa !16
  %14 = getelementptr inbounds nuw %"class.logos::PointPair", ptr %7, i32 0, i32 6
  store i32 0, ptr %14, align 8, !tbaa !17
  call void @_ZN5logos9PointPair26calculateInternalVariablesEv(ptr noundef nonnull align 8 dereferenceable(36) %7)
  ret void
}