; Function Attrs: mustprogress nofree nounwind memory(write, argmem: readwrite) uwtable
define hidden void @_ZN5logos9PointPairC2EPNS_5PointES2_(ptr noundef nonnull writeonly align 8 captures(none) dereferenceable(36) initializes((0, 20), (28, 36)) %0, ptr noundef %1, ptr noundef %2) unnamed_addr #0 align 2 {
  store ptr %1, ptr %0, align 8, !tbaa !3
  %4 = getelementptr inbounds nuw i8, ptr %0, i64 8
  store ptr %2, ptr %4, align 8, !tbaa !11
  %5 = getelementptr inbounds nuw i8, ptr %0, i64 16
  store i32 0, ptr %5, align 8, !tbaa !12
  %6 = getelementptr inbounds nuw i8, ptr %0, i64 28
  store i32 0, ptr %6, align 4, !tbaa !13
  %7 = getelementptr inbounds nuw i8, ptr %0, i64 32
  store i32 0, ptr %7, align 8, !tbaa !14
  %8 = getelementptr inbounds nuw i8, ptr %1, i64 8
  %9 = load float, ptr %8, align 8, !tbaa !15
  %10 = getelementptr inbounds nuw i8, ptr %2, i64 8
  %11 = load float, ptr %10, align 8, !tbaa !15
  %12 = fsub float %9, %11
  %13 = fpext float %12 to double
  %14 = fcmp ogt double %13, 0x400921FB54442D18
  br i1 %14, label %.lr.ph.i.i, label %.preheader.i.i

.preheader.i.i:                                   ; preds = %.lr.ph.i.i, %3
  %.pre-phi.i.i = phi double [ %13, %3 ], [ %19, %.lr.ph.i.i ]
  %.0.lcssa.i.i = phi float [ %12, %3 ], [ %18, %.lr.ph.i.i ]
  %15 = fcmp olt double %.pre-phi.i.i, 0xC00921FB54442D18
  br i1 %15, label %.lr.ph9.i.i, label %_ZN5logos9PointPair26calculateInternalVariablesEv.exit

.lr.ph.i.i:                                       ; preds = %3, %.lr.ph.i.i
  %16 = phi double [ %19, %.lr.ph.i.i ], [ %13, %3 ]
  %17 = fadd double %16, 0xC01921FB54442D18
  %18 = fptrunc double %17 to float
  %19 = fpext float %18 to double
  %20 = fcmp ogt double %19, 0x400921FB54442D18
  br i1 %20, label %.lr.ph.i.i, label %.preheader.i.i, !llvm.loop !24

.lr.ph9.i.i:                                      ; preds = %.preheader.i.i, %.lr.ph9.i.i
  %21 = phi double [ %24, %.lr.ph9.i.i ], [ %.pre-phi.i.i, %.preheader.i.i ]
  %22 = fadd double %21, 0x401921FB54442D18
  %23 = fptrunc double %22 to float
  %24 = fpext float %23 to double
  %25 = fcmp olt double %24, 0xC00921FB54442D18
  br i1 %25, label %.lr.ph9.i.i, label %_ZN5logos9PointPair26calculateInternalVariablesEv.exit, !llvm.loop !26

_ZN5logos9PointPair26calculateInternalVariablesEv.exit: ; preds = %.lr.ph9.i.i, %.preheader.i.i
  %.1.lcssa.i.i = phi float [ %.0.lcssa.i.i, %.preheader.i.i ], [ %23, %.lr.ph9.i.i ]
  %26 = getelementptr inbounds nuw i8, ptr %0, i64 20
  store float %.1.lcssa.i.i, ptr %26, align 4, !tbaa !27
  %27 = getelementptr inbounds nuw i8, ptr %1, i64 12
  %28 = load float, ptr %27, align 4, !tbaa !28
  %29 = tail call noundef float @logf(float noundef %28) #15, !tbaa !29
  %30 = getelementptr inbounds nuw i8, ptr %2, i64 12
  %31 = load float, ptr %30, align 4, !tbaa !28
  %32 = tail call noundef float @logf(float noundef %31) #15, !tbaa !29
  %33 = fsub float %29, %32
  %34 = getelementptr inbounds nuw i8, ptr %0, i64 24
  store float %33, ptr %34, align 8, !tbaa !30
  ret void
}